; Function Attrs: mustprogress nounwind uwtable
define dso_local void @_ZN4node10BaseObject8DeleteMeEPv(ptr noundef %data) #3 align 2 {
entry:
  %pointer_data_.i = getelementptr inbounds i8, ptr %data, i64 24
  %0 = load ptr, ptr %pointer_data_.i, align 8
  %cmp.i.not = icmp eq ptr %0, null
  br i1 %cmp.i.not, label %delete.notnull, label %_ZN4node10BaseObject12pointer_dataEv.exit

_ZN4node10BaseObject12pointer_dataEv.exit:        ; preds = %entry
  %1 = load i32, ptr %0, align 8
  %cmp.not = icmp eq i32 %1, 0
  br i1 %cmp.not, label %delete.notnull, label %_ZN4node10BaseObject6DetachEv.exit

_ZN4node10BaseObject6DetachEv.exit:               ; preds = %_ZN4node10BaseObject12pointer_dataEv.exit
  %is_detached.i = getelementptr inbounds i8, ptr %0, i64 9
  store i8 1, ptr %is_detached.i, align 1
  br label %delete.end

delete.notnull:                                   ; preds = %entry, %_ZN4node10BaseObject12pointer_dataEv.exit
  %vtable = load ptr, ptr %data, align 8
  %vfn = getelementptr inbounds i8, ptr %vtable, i64 8
  %2 = load ptr, ptr %vfn, align 8
  tail call void %2(ptr noundef nonnull align 8 dereferenceable(32) %data) #17
  br label %delete.end

delete.end:                                       ; preds = %delete.notnull, %_ZN4node10BaseObject6DetachEv.exit
  ret void
}